; Function Attrs: mustprogress uwtable
define void @_ZNK6casadi5Norm110ad_forwardERKSt6vectorIS1_INS_2MXESaIS2_EESaIS4_EERS6_(ptr noundef nonnull readonly align 8 captures(none) dereferenceable(64) %0, ptr noundef nonnull readonly align 8 captures(none) dereferenceable(24) %1, ptr noundef nonnull readonly align 8 captures(none) dereferenceable(24) %2) unnamed_addr #3 align 2 personality ptr @__gxx_personality_v0 {
  %4 = alloca %"class.casadi::MX", align 8
  %5 = alloca %"class.casadi::MX", align 8
  call void @llvm.lifetime.start.p0(i64 8, ptr nonnull %4) #22
  %6 = getelementptr inbounds nuw i8, ptr %0, i64 32
  %7 = getelementptr inbounds nuw i8, ptr %0, i64 40
  %8 = load ptr, ptr %7, align 8, !tbaa !23
  %9 = load ptr, ptr %6, align 8, !tbaa !26
  %.not.i.i.i.not = icmp eq ptr %8, %9
  br i1 %.not.i.i.i.not, label %10, label %_ZNK6casadi6MXNode3depEx.exit

10:                                               ; preds = %3
  tail call void (ptr, ...) @_ZSt24__throw_out_of_range_fmtPKcz(ptr noundef nonnull @.str.7, i64 noundef 0, i64 noundef 0) #24
  unreachable

_ZNK6casadi6MXNode3depEx.exit:                    ; preds = %3
  call void @_ZN6casadi2MX5unaryExRKS0_(ptr dead_on_unwind nonnull writable sret(%"class.casadi::MX") align 8 %4, i64 noundef 30, ptr noundef nonnull align 8 dereferenceable(8) %9)
  %11 = getelementptr inbounds nuw i8, ptr %2, i64 8
  %12 = load ptr, ptr %11, align 8, !tbaa !42
  %13 = load ptr, ptr %2, align 8, !tbaa !45
  %.not = icmp eq ptr %12, %13
  br i1 %.not, label %._crit_edge, label %.lr.ph

._crit_edge:                                      ; preds = %_ZN6casadi2MXaSERKS0_.exit, %_ZNK6casadi6MXNode3depEx.exit
  call void @_ZN6casadi2MXD1Ev(ptr noundef nonnull align 8 dereferenceable(8) %4) #22
  call void @llvm.lifetime.end.p0(i64 8, ptr nonnull %4) #22
  ret void

.lr.ph:                                           ; preds = %_ZNK6casadi6MXNode3depEx.exit, %_ZN6casadi2MXaSERKS0_.exit
  %.01012 = phi i64 [ %27, %_ZN6casadi2MXaSERKS0_.exit ], [ 0, %_ZNK6casadi6MXNode3depEx.exit ]
  call void @llvm.lifetime.start.p0(i64 8, ptr nonnull %5) #22
  %14 = invoke noundef ptr @_ZN6casadi2MXptEv(ptr noundef nonnull align 8 dereferenceable(8) %4)
          to label %15 unwind label %35

15:                                               ; preds = %.lr.ph
  %16 = load ptr, ptr %1, align 8, !tbaa !45
  %17 = getelementptr inbounds nuw %"class.std::vector", ptr %16, i64 %.01012
  %18 = load ptr, ptr %17, align 8, !tbaa !26
  %19 = load ptr, ptr %14, align 8, !tbaa !3
  %20 = getelementptr inbounds nuw i8, ptr %19, i64 832
  %21 = load ptr, ptr %20, align 8
  invoke void %21(ptr dead_on_unwind nonnull writable sret(%"class.casadi::MX") align 8 %5, ptr noundef nonnull align 8 dereferenceable(64) %14, ptr noundef nonnull align 8 dereferenceable(8) %18)
          to label %22 unwind label %35

22:                                               ; preds = %15
  %23 = load ptr, ptr %2, align 8, !tbaa !45
  %24 = getelementptr inbounds nuw %"class.std::vector", ptr %23, i64 %.01012
  %25 = load ptr, ptr %24, align 8, !tbaa !26
  %26 = invoke noundef nonnull align 8 dereferenceable(8) ptr @_ZN6casadi13GenericSharedINS_12SharedObjectENS_20SharedObjectInternalEEaSERKS3_(ptr noundef nonnull align 8 dereferenceable(8) %25, ptr noundef nonnull align 8 dereferenceable(8) %5)
          to label %_ZN6casadi2MXaSERKS0_.exit unwind label %37

_ZN6casadi2MXaSERKS0_.exit:                       ; preds = %22
  call void @_ZN6casadi2MXD1Ev(ptr noundef nonnull align 8 dereferenceable(8) %5) #22
  call void @llvm.lifetime.end.p0(i64 8, ptr nonnull %5) #22
  %27 = add nuw nsw i64 %.01012, 1
  %28 = load ptr, ptr %11, align 8, !tbaa !42
  %29 = load ptr, ptr %2, align 8, !tbaa !45
  %30 = ptrtoint ptr %28 to i64
  %31 = ptrtoint ptr %29 to i64
  %32 = sub i64 %30, %31
  %33 = sdiv exact i64 %32, 24
  %34 = icmp ult i64 %27, %33
  br i1 %34, label %.lr.ph, label %._crit_edge, !llvm.loop !51

35:                                               ; preds = %15, %.lr.ph
  %36 = landingpad { ptr, i32 }
          cleanup
  br label %39

37:                                               ; preds = %22
  %38 = landingpad { ptr, i32 }
          cleanup
  call void @_ZN6casadi2MXD1Ev(ptr noundef nonnull align 8 dereferenceable(8) %5) #22
  br label %39

39:                                               ; preds = %37, %35
  %.pn = phi { ptr, i32 } [ %38, %37 ], [ %36, %35 ]
  call void @llvm.lifetime.end.p0(i64 8, ptr nonnull %5) #22
  call void @_ZN6casadi2MXD1Ev(ptr noundef nonnull align 8 dereferenceable(8) %4) #22
  call void @llvm.lifetime.end.p0(i64 8, ptr nonnull %4) #22
  resume { ptr, i32 } %.pn
}